ccollections
Counter
p1
((dp2
S'E'
I20238
sS'I'
I20238
sS'O'
I20238
sS'N'
I20238
sS'S'
I20238
sS' '
I28790
sS'1'
I6111
sS'0'
I6386
sS'3'
I6273
sS'2'
I6391
sS'5'
I4675
sS'4'
I4335
sS'7'
I7279
sS'6'
I4895
sS'9'
I3530
sS'8'
I9989
stRp3
.